target datalayout = "e-m:e-p270:32:32-p271:32:32-p272:64:64-i64:64-i128:128-f80:128-n8:16:32:64-S128"
target triple = "x86_64-pc-linux-gnu"

%struct.X509_VERIFY_PARAM_st = type { ptr, i64, i64, i64, i32, i32, i32, ptr, ptr }

; Function Attrs: nounwind uwtable
define hidden i32 @X509_VERIFY_PARAM_set1_name(ptr noundef %0, ptr noundef %1) #0 {
  %3 = alloca i32, align 4
  %4 = alloca ptr, align 8
  %5 = alloca ptr, align 8
  store ptr %0, ptr %4, align 8, !tbaa !6
  store ptr %1, ptr %5, align 8, !tbaa !43
  %6 = load ptr, ptr %4, align 8, !tbaa !6
  %7 = getelementptr inbounds nuw %struct.X509_VERIFY_PARAM_st, ptr %6, i32 0, i32 0
  %8 = load ptr, ptr %7, align 8, !tbaa !19
  %9 = icmp ne ptr %8, null
  br i1 %9, label %10, label %14

10:                                               ; preds = %2
  %11 = load ptr, ptr %4, align 8, !tbaa !6
  %12 = getelementptr inbounds nuw %struct.X509_VERIFY_PARAM_st, ptr %11, i32 0, i32 0
  %13 = load ptr, ptr %12, align 8, !tbaa !19
  call void @free(ptr noundef %13) #7
  br label %14

14:                                               ; preds = %10, %2
  %15 = load ptr, ptr %5, align 8, !tbaa !43
  %16 = call ptr @BUF_strdup(ptr noundef %15)
  %17 = load ptr, ptr %4, align 8, !tbaa !6
  %18 = getelementptr inbounds nuw %struct.X509_VERIFY_PARAM_st, ptr %17, i32 0, i32 0
  store ptr %16, ptr %18, align 8, !tbaa !19
  %19 = load ptr, ptr %4, align 8, !tbaa !6
  %20 = getelementptr inbounds nuw %struct.X509_VERIFY_PARAM_st, ptr %19, i32 0, i32 0
  %21 = load ptr, ptr %20, align 8, !tbaa !19
  %22 = icmp ne ptr %21, null
  br i1 %22, label %23, label %24

23:                                               ; preds = %14
  store i32 1, ptr %3, align 4
  br label %25

24:                                               ; preds = %14
  store i32 0, ptr %3, align 4
  br label %25

25:                                               ; preds = %24, %23
  %26 = load i32, ptr %3, align 4
  ret i32 %26
}