; Function Attrs: nounwind uwtable
define hidden range(i32 0, 2) i32 @X509_VERIFY_PARAM_set1_name(ptr noundef captures(none) %0, ptr noundef %1) local_unnamed_addr #0 {
  %3 = load ptr, ptr %0, align 8, !tbaa !16
  %.not = icmp eq ptr %3, null
  br i1 %.not, label %5, label %4

4:                                                ; preds = %2
  tail call void @free(ptr noundef nonnull %3) #16
  br label %5

5:                                                ; preds = %4, %2
  %6 = tail call ptr @BUF_strdup(ptr noundef %1) #16
  store ptr %6, ptr %0, align 8, !tbaa !16
  %.not6 = icmp ne ptr %6, null
  %. = zext i1 %.not6 to i32
  ret i32 %.
}